; Function Attrs: mustprogress nofree norecurse nosync nounwind memory(readwrite, inaccessiblemem: none) uwtable
define dso_local void @_ZN11btMultiBody22addJointTorqueMultiDofEiPKf(ptr nocapture noundef nonnull readonly align 8 dereferenceable(640) %this, i32 noundef %i, ptr nocapture noundef readonly %Q) local_unnamed_addr #9 align 2 {
entry:
  %m_data.i = getelementptr inbounds i8, ptr %this, i64 192
  %idxprom.i = sext i32 %i to i64
  %0 = load ptr, ptr %m_data.i, align 8
  %m_dofCount9 = getelementptr inbounds %struct.btMultibodyLink, ptr %0, i64 %idxprom.i, i32 24
  %1 = load i32, ptr %m_dofCount9, align 4
  %cmp10 = icmp sgt i32 %1, 0
  br i1 %cmp10, label %for.body, label %for.end

for.body:                                         ; preds = %entry, %for.body
  %indvars.iv = phi i64 [ %indvars.iv.next, %for.body ], [ 0, %entry ]
  %2 = phi ptr [ %4, %for.body ], [ %0, %entry ]
  %arrayidx = getelementptr inbounds float, ptr %Q, i64 %indvars.iv
  %3 = load float, ptr %arrayidx, align 4
  %arrayidx5 = getelementptr inbounds %struct.btMultibodyLink, ptr %2, i64 %idxprom.i, i32 21, i64 %indvars.iv
  store float %3, ptr %arrayidx5, align 4
  %indvars.iv.next = add nuw nsw i64 %indvars.iv, 1
  %4 = load ptr, ptr %m_data.i, align 8
  %m_dofCount = getelementptr inbounds %struct.btMultibodyLink, ptr %4, i64 %idxprom.i, i32 24
  %5 = load i32, ptr %m_dofCount, align 4
  %6 = sext i32 %5 to i64
  %cmp = icmp slt i64 %indvars.iv.next, %6
  br i1 %cmp, label %for.body, label %for.end, !llvm.loop !26

for.end:                                          ; preds = %for.body, %entry
  ret void
}